; Function Attrs: mustprogress nounwind uwtable
define hidden void @_ZN7Imf_3_215Pxr24CompressorD0Ev(ptr noundef nonnull align 8 dereferenceable(60) %this) unnamed_addr #5 align 2 {
entry:
  store ptr getelementptr inbounds ({ [10 x ptr] }, ptr @_ZTVN7Imf_3_215Pxr24CompressorE, i64 0, i32 0, i64 2), ptr %this, align 8
  %_tmpBuffer.i = getelementptr inbounds i8, ptr %this, i64 24
  %0 = load ptr, ptr %_tmpBuffer.i, align 8
  %isnull.i = icmp eq ptr %0, null
  br i1 %isnull.i, label %delete.end.i, label %delete.notnull.i

delete.notnull.i:                                 ; preds = %entry
  tail call void @_ZdaPv(ptr noundef nonnull %0) #16
  br label %delete.end.i

delete.end.i:                                     ; preds = %delete.notnull.i, %entry
  %_outBuffer.i = getelementptr inbounds i8, ptr %this, i64 32
  %1 = load ptr, ptr %_outBuffer.i, align 8
  %isnull2.i = icmp eq ptr %1, null
  br i1 %isnull2.i, label %_ZN7Imf_3_215Pxr24CompressorD2Ev.exit, label %delete.notnull3.i

delete.notnull3.i:                                ; preds = %delete.end.i
  tail call void @_ZdaPv(ptr noundef nonnull %1) #16
  br label %_ZN7Imf_3_215Pxr24CompressorD2Ev.exit

_ZN7Imf_3_215Pxr24CompressorD2Ev.exit:            ; preds = %delete.end.i, %delete.notnull3.i
  tail call void @_ZN7Imf_3_210CompressorD2Ev(ptr noundef nonnull align 8 dereferenceable(16) %this) #13
  tail call void @_ZdlPv(ptr noundef nonnull %this) #16
  ret void
}